target datalayout = "e-m:e-p270:32:32-p271:32:32-p272:64:64-i64:64-i128:128-f80:128-n8:16:32:64-S128"
target triple = "x86_64-pc-linux-gnu"

%struct.sfparse_parser = type { ptr, ptr, i32 }

@.str = private unnamed_addr constant [2 x i8] c"0\00", align 1
@.str.1 = private unnamed_addr constant [107 x i8] c"generated/home/dtcxzyw/WorkSpace/Projects/compilers/llvm-opt-benchmark/bench/nghttp2/nghttp2/lib/sfparse.c\00", align 1
@__PRETTY_FUNCTION__.sfparse_parser_inner_list = private unnamed_addr constant [65 x i8] c"int sfparse_parser_inner_list(sfparse_parser *, sfparse_value *)\00", align 1
@__PRETTY_FUNCTION__.parser_skip_params = private unnamed_addr constant [41 x i8] c"int parser_skip_params(sfparse_parser *)\00", align 1

; Function Attrs: nounwind uwtable
define internal void @parser_set_op_state(ptr noundef %0, i32 noundef %1) #0 {
  %3 = alloca ptr, align 8
  %4 = alloca i32, align 4
  store ptr %0, ptr %3, align 8, !tbaa !3
  store i32 %1, ptr %4, align 4, !tbaa !16
  %5 = load ptr, ptr %3, align 8, !tbaa !3
  %6 = getelementptr inbounds nuw %struct.sfparse_parser, ptr %5, i32 0, i32 2
  %7 = load i32, ptr %6, align 8, !tbaa !12
  %8 = and i32 %7, -4
  store i32 %8, ptr %6, align 8, !tbaa !12
  %9 = load i32, ptr %4, align 4, !tbaa !16
  %10 = load ptr, ptr %3, align 8, !tbaa !3
  %11 = getelementptr inbounds nuw %struct.sfparse_parser, ptr %10, i32 0, i32 2
  %12 = load i32, ptr %11, align 8, !tbaa !12
  %13 = or i32 %12, %9
  store i32 %13, ptr %11, align 8, !tbaa !12
  ret void
}

; Function Attrs: nounwind uwtable
define internal void @parser_unset_inner_list_state(ptr noundef %0) #0 {
  %2 = alloca ptr, align 8
  store ptr %0, ptr %2, align 8, !tbaa !3
  %3 = load ptr, ptr %2, align 8, !tbaa !3
  %4 = getelementptr inbounds nuw %struct.sfparse_parser, ptr %3, i32 0, i32 2
  %5 = load i32, ptr %4, align 8, !tbaa !12
  %6 = and i32 %5, -5
  store i32 %6, ptr %4, align 8, !tbaa !12
  ret void
}

; Function Attrs: nounwind uwtable
define internal i32 @parser_skip_params(ptr noundef %0) #0 {
  %2 = alloca i32, align 4
  %3 = alloca ptr, align 8
  %4 = alloca i32, align 4
  %5 = alloca i32, align 4
  store ptr %0, ptr %3, align 8, !tbaa !3
  call void @llvm.lifetime.start.p0(i64 4, ptr %4) #5
  br label %6

6:                                                ; preds = %14, %1
  %7 = load ptr, ptr %3, align 8, !tbaa !3
  %8 = call i32 @sfparse_parser_param(ptr noundef %7, ptr noundef null, ptr noundef null)
  store i32 %8, ptr %4, align 4, !tbaa !16
  %9 = load i32, ptr %4, align 4, !tbaa !16
  switch i32 %9, label %13 [
    i32 0, label %14
    i32 -2, label %10
    i32 -1, label %11
  ]

10:                                               ; preds = %6
  store i32 0, ptr %2, align 4
  store i32 1, ptr %5, align 4
  br label %15

11:                                               ; preds = %6
  %12 = load i32, ptr %4, align 4, !tbaa !16
  store i32 %12, ptr %2, align 4
  store i32 1, ptr %5, align 4
  br label %15

13:                                               ; preds = %6
  call void @__assert_fail(ptr noundef @.str, ptr noundef @.str.1, i32 noundef 1280, ptr noundef @__PRETTY_FUNCTION__.parser_skip_params) #6
  unreachable

14:                                               ; preds = %6
  br label %6

15:                                               ; preds = %11, %10
  call void @llvm.lifetime.end.p0(i64 4, ptr %4) #5
  %16 = load i32, ptr %2, align 4
  ret i32 %16
}

; Function Attrs: nounwind uwtable
define internal i32 @parser_eof(ptr noundef %0) #0 {
  %2 = alloca ptr, align 8
  store ptr %0, ptr %2, align 8, !tbaa !3
  %3 = load ptr, ptr %2, align 8, !tbaa !3
  %4 = getelementptr inbounds nuw %struct.sfparse_parser, ptr %3, i32 0, i32 0
  %5 = load ptr, ptr %4, align 8, !tbaa !17
  %6 = load ptr, ptr %2, align 8, !tbaa !3
  %7 = getelementptr inbounds nuw %struct.sfparse_parser, ptr %6, i32 0, i32 1
  %8 = load ptr, ptr %7, align 8, !tbaa !22
  %9 = icmp eq ptr %5, %8
  %10 = zext i1 %9 to i32
  ret i32 %10
}

; Function Attrs: nounwind uwtable
define internal void @parser_discard_sp(ptr noundef %0) #0 {
  %2 = alloca ptr, align 8
  store ptr %0, ptr %2, align 8, !tbaa !3
  br label %3

3:                                                ; preds = %17, %1
  %4 = load ptr, ptr %2, align 8, !tbaa !3
  %5 = call i32 @parser_eof(ptr noundef %4)
  %6 = icmp ne i32 %5, 0
  br i1 %6, label %14, label %7

7:                                                ; preds = %3
  %8 = load ptr, ptr %2, align 8, !tbaa !3
  %9 = getelementptr inbounds nuw %struct.sfparse_parser, ptr %8, i32 0, i32 0
  %10 = load ptr, ptr %9, align 8, !tbaa !17
  %11 = load i8, ptr %10, align 1, !tbaa !18
  %12 = zext i8 %11 to i32
  %13 = icmp eq i32 %12, 32
  br label %14

14:                                               ; preds = %7, %3
  %15 = phi i1 [ false, %3 ], [ %13, %7 ]
  br i1 %15, label %16, label %22

16:                                               ; preds = %14
  br label %17

17:                                               ; preds = %16
  %18 = load ptr, ptr %2, align 8, !tbaa !3
  %19 = getelementptr inbounds nuw %struct.sfparse_parser, ptr %18, i32 0, i32 0
  %20 = load ptr, ptr %19, align 8, !tbaa !17
  %21 = getelementptr inbounds nuw i8, ptr %20, i32 1
  store ptr %21, ptr %19, align 8, !tbaa !17
  br label %3, !llvm.loop !23

22:                                               ; preds = %14
  ret void
}

; Function Attrs: nounwind uwtable
define hidden i32 @sfparse_parser_inner_list(ptr noundef %0, ptr noundef %1) #0 {
  %3 = alloca i32, align 4
  %4 = alloca ptr, align 8
  %5 = alloca ptr, align 8
  %6 = alloca i32, align 4
  %7 = alloca i32, align 4
  store ptr %0, ptr %4, align 8, !tbaa !3
  store ptr %1, ptr %5, align 8, !tbaa !10
  call void @llvm.lifetime.start.p0(i64 4, ptr %6) #5
  %8 = load ptr, ptr %4, align 8, !tbaa !3
  %9 = getelementptr inbounds nuw %struct.sfparse_parser, ptr %8, i32 0, i32 2
  %10 = load i32, ptr %9, align 8, !tbaa !12
  %11 = and i32 %10, 3
  switch i32 %11, label %47 [
    i32 0, label %12
    i32 1, label %19
    i32 3, label %27
  ]

12:                                               ; preds = %2
  %13 = load ptr, ptr %4, align 8, !tbaa !3
  call void @parser_discard_sp(ptr noundef %13)
  %14 = load ptr, ptr %4, align 8, !tbaa !3
  %15 = call i32 @parser_eof(ptr noundef %14)
  %16 = icmp ne i32 %15, 0
  br i1 %16, label %17, label %18

17:                                               ; preds = %12
  store i32 -1, ptr %3, align 4
  store i32 1, ptr %7, align 4
  br label %72

18:                                               ; preds = %12
  br label %48

19:                                               ; preds = %2
  %20 = load ptr, ptr %4, align 8, !tbaa !3
  %21 = call i32 @parser_skip_params(ptr noundef %20)
  store i32 %21, ptr %6, align 4, !tbaa !16
  %22 = load i32, ptr %6, align 4, !tbaa !16
  %23 = icmp ne i32 %22, 0
  br i1 %23, label %24, label %26

24:                                               ; preds = %19
  %25 = load i32, ptr %6, align 4, !tbaa !16
  store i32 %25, ptr %3, align 4
  store i32 1, ptr %7, align 4
  br label %72

26:                                               ; preds = %19
  br label %27

27:                                               ; preds = %2, %26
  %28 = load ptr, ptr %4, align 8, !tbaa !3
  %29 = call i32 @parser_eof(ptr noundef %28)
  %30 = icmp ne i32 %29, 0
  br i1 %30, label %31, label %32

31:                                               ; preds = %27
  store i32 -1, ptr %3, align 4
  store i32 1, ptr %7, align 4
  br label %72

32:                                               ; preds = %27
  %33 = load ptr, ptr %4, align 8, !tbaa !3
  %34 = getelementptr inbounds nuw %struct.sfparse_parser, ptr %33, i32 0, i32 0
  %35 = load ptr, ptr %34, align 8, !tbaa !17
  %36 = load i8, ptr %35, align 1, !tbaa !18
  %37 = zext i8 %36 to i32
  switch i32 %37, label %45 [
    i32 32, label %38
    i32 41, label %46
  ]

38:                                               ; preds = %32
  %39 = load ptr, ptr %4, align 8, !tbaa !3
  call void @parser_discard_sp(ptr noundef %39)
  %40 = load ptr, ptr %4, align 8, !tbaa !3
  %41 = call i32 @parser_eof(ptr noundef %40)
  %42 = icmp ne i32 %41, 0
  br i1 %42, label %43, label %44

43:                                               ; preds = %38
  store i32 -1, ptr %3, align 4
  store i32 1, ptr %7, align 4
  br label %72

44:                                               ; preds = %38
  br label %46

45:                                               ; preds = %32
  store i32 -1, ptr %3, align 4
  store i32 1, ptr %7, align 4
  br label %72

46:                                               ; preds = %32, %44
  br label %48

47:                                               ; preds = %2
  call void @__assert_fail(ptr noundef @.str, ptr noundef @.str.1, i32 noundef 1329, ptr noundef @__PRETTY_FUNCTION__.sfparse_parser_inner_list) #6
  unreachable

48:                                               ; preds = %46, %18
  %49 = load ptr, ptr %4, align 8, !tbaa !3
  %50 = getelementptr inbounds nuw %struct.sfparse_parser, ptr %49, i32 0, i32 0
  %51 = load ptr, ptr %50, align 8, !tbaa !17
  %52 = load i8, ptr %51, align 1, !tbaa !18
  %53 = zext i8 %52 to i32
  %54 = icmp eq i32 %53, 41
  br i1 %54, label %55, label %62

55:                                               ; preds = %48
  %56 = load ptr, ptr %4, align 8, !tbaa !3
  %57 = getelementptr inbounds nuw %struct.sfparse_parser, ptr %56, i32 0, i32 0
  %58 = load ptr, ptr %57, align 8, !tbaa !17
  %59 = getelementptr inbounds nuw i8, ptr %58, i32 1
  store ptr %59, ptr %57, align 8, !tbaa !17
  %60 = load ptr, ptr %4, align 8, !tbaa !3
  call void @parser_unset_inner_list_state(ptr noundef %60)
  %61 = load ptr, ptr %4, align 8, !tbaa !3
  call void @parser_set_op_state(ptr noundef %61, i32 noundef 1)
  store i32 -2, ptr %3, align 4
  store i32 1, ptr %7, align 4
  br label %72

62:                                               ; preds = %48
  %63 = load ptr, ptr %4, align 8, !tbaa !3
  %64 = load ptr, ptr %5, align 8, !tbaa !10
  %65 = call i32 @parser_bare_item(ptr noundef %63, ptr noundef %64)
  store i32 %65, ptr %6, align 4, !tbaa !16
  %66 = load i32, ptr %6, align 4, !tbaa !16
  %67 = icmp ne i32 %66, 0
  br i1 %67, label %68, label %70

68:                                               ; preds = %62
  %69 = load i32, ptr %6, align 4, !tbaa !16
  store i32 %69, ptr %3, align 4
  store i32 1, ptr %7, align 4
  br label %72

70:                                               ; preds = %62
  %71 = load ptr, ptr %4, align 8, !tbaa !3
  call void @parser_set_op_state(ptr noundef %71, i32 noundef 1)
  store i32 0, ptr %3, align 4
  store i32 1, ptr %7, align 4
  br label %72

72:                                               ; preds = %70, %68, %55, %45, %43, %31, %24, %17
  call void @llvm.lifetime.end.p0(i64 4, ptr %6) #5
  %73 = load i32, ptr %3, align 4
  ret i32 %73
}