; Function Attrs: nounwind uwtable
define hidden range(i32 -2, 1) i32 @sfparse_parser_inner_list(ptr noundef captures(none) %0, ptr noundef %1) local_unnamed_addr #0 {
  %3 = getelementptr inbounds nuw i8, ptr %0, i64 16
  %4 = load i32, ptr %3, align 8, !tbaa !3
  %5 = and i32 %4, 3
  switch i32 %5, label %default.unreachable45 [
    i32 0, label %6
    i32 1, label %.preheader
    i32 3, label %parser_skip_params.exit.thread
    i32 2, label %18
  ]

6:                                                ; preds = %2
  %7 = getelementptr i8, ptr %0, i64 8
  %.val3.i = load ptr, ptr %7, align 8, !tbaa !11
  %.promoted.i = load ptr, ptr %0, align 8, !tbaa !10
  %.not5.i = icmp eq ptr %.promoted.i, %.val3.i
  br i1 %.not5.i, label %parser_discard_sp.exit, label %.lr.ph.i

.lr.ph.i:                                         ; preds = %6, %10
  %.val46.i = phi ptr [ %11, %10 ], [ %.promoted.i, %6 ]
  %8 = load i8, ptr %.val46.i, align 1, !tbaa !12
  %9 = icmp eq i8 %8, 32
  br i1 %9, label %10, label %parser_discard_sp.exit

10:                                               ; preds = %.lr.ph.i
  %11 = getelementptr inbounds nuw i8, ptr %.val46.i, i64 1
  store ptr %11, ptr %0, align 8, !tbaa !10
  %.not.i = icmp eq ptr %11, %.val3.i
  br i1 %.not.i, label %parser_discard_sp.exit, label %.lr.ph.i, !llvm.loop !13

parser_discard_sp.exit:                           ; preds = %.lr.ph.i, %10, %6
  %.val28 = phi ptr [ %.promoted.i, %6 ], [ %.val46.i, %.lr.ph.i ], [ %11, %10 ]
  %.not41 = icmp eq ptr %.val28, %.val3.i
  br i1 %.not41, label %parser_skip_params.exit, label %parser_discard_sp.exit36thread-pre-split

.preheader:                                       ; preds = %2, %.preheader
  %12 = tail call i32 @sfparse_parser_param(ptr noundef nonnull %0, ptr noundef null, ptr noundef null)
  switch i32 %12, label %default.unreachable45 [
    i32 0, label %.preheader
    i32 -2, label %parser_skip_params.exit.thread
    i32 -1, label %parser_skip_params.exit
  ]

parser_skip_params.exit.thread:                   ; preds = %.preheader, %2
  %.val26 = load ptr, ptr %0, align 8, !tbaa !10
  %13 = getelementptr i8, ptr %0, i64 8
  %.val27 = load ptr, ptr %13, align 8, !tbaa !11
  %.not = icmp eq ptr %.val26, %.val27
  br i1 %.not, label %parser_skip_params.exit, label %14

14:                                               ; preds = %parser_skip_params.exit.thread
  %15 = load i8, ptr %.val26, align 1, !tbaa !12
  switch i8 %15, label %parser_skip_params.exit [
    i8 32, label %.lr.ph.i33.preheader
    i8 41, label %parser_discard_sp.exit36.thread47
  ]

.lr.ph.i33thread-pre-split:                       ; preds = %.lr.ph.i33.preheader
  %.pr = load i8, ptr %17, align 1, !tbaa !12
  %16 = icmp eq i8 %.pr, 32
  br i1 %16, label %.lr.ph.i33.preheader, label %parser_discard_sp.exit36

.lr.ph.i33.preheader:                             ; preds = %14, %.lr.ph.i33thread-pre-split
  %.val46.i3442 = phi ptr [ %17, %.lr.ph.i33thread-pre-split ], [ %.val26, %14 ]
  %17 = getelementptr inbounds nuw i8, ptr %.val46.i3442, i64 1
  store ptr %17, ptr %0, align 8, !tbaa !10
  %.not.i35 = icmp eq ptr %17, %.val27
  br i1 %.not.i35, label %parser_skip_params.exit, label %.lr.ph.i33thread-pre-split, !llvm.loop !13

default.unreachable45:                            ; preds = %.preheader, %2
  unreachable

18:                                               ; preds = %2
  tail call void @__assert_fail(ptr noundef nonnull @.str, ptr noundef nonnull @.str.1, i32 noundef 1329, ptr noundef nonnull @__PRETTY_FUNCTION__.sfparse_parser_inner_list) #8
  unreachable

parser_discard_sp.exit36thread-pre-split:         ; preds = %parser_discard_sp.exit
  %.pr46 = load i8, ptr %.val28, align 1, !tbaa !12
  br label %parser_discard_sp.exit36

parser_discard_sp.exit36:                         ; preds = %.lr.ph.i33thread-pre-split, %parser_discard_sp.exit36thread-pre-split
  %19 = phi i8 [ %.pr46, %parser_discard_sp.exit36thread-pre-split ], [ %.pr, %.lr.ph.i33thread-pre-split ]
  %20 = phi ptr [ %.val28, %parser_discard_sp.exit36thread-pre-split ], [ %17, %.lr.ph.i33thread-pre-split ]
  %21 = icmp eq i8 %19, 41
  br i1 %21, label %parser_discard_sp.exit36.thread47, label %24

parser_discard_sp.exit36.thread47:                ; preds = %14, %parser_discard_sp.exit36
  %22 = phi ptr [ %20, %parser_discard_sp.exit36 ], [ %.val26, %14 ]
  %23 = getelementptr inbounds nuw i8, ptr %22, i64 1
  store ptr %23, ptr %0, align 8, !tbaa !10
  br label %parser_skip_params.exit.sink.split

24:                                               ; preds = %parser_discard_sp.exit36
  %25 = tail call fastcc i32 @parser_bare_item(ptr noundef nonnull %0, ptr noundef %1)
  %.not24 = icmp eq i32 %25, 0
  br i1 %.not24, label %parser_skip_params.exit.sink.split, label %parser_skip_params.exit

parser_skip_params.exit.sink.split:               ; preds = %24, %parser_discard_sp.exit36.thread47
  %.sink51 = phi i32 [ -8, %parser_discard_sp.exit36.thread47 ], [ -4, %24 ]
  %.0.ph = phi i32 [ -2, %parser_discard_sp.exit36.thread47 ], [ 0, %24 ]
  %26 = load i32, ptr %3, align 8, !tbaa !3
  %27 = and i32 %26, %.sink51
  %28 = or disjoint i32 %27, 1
  store i32 %28, ptr %3, align 8, !tbaa !3
  br label %parser_skip_params.exit

parser_skip_params.exit:                          ; preds = %.preheader, %.lr.ph.i33.preheader, %parser_skip_params.exit.sink.split, %24, %14, %parser_skip_params.exit.thread, %parser_discard_sp.exit
  %.0 = phi i32 [ -1, %parser_discard_sp.exit ], [ -1, %parser_skip_params.exit.thread ], [ -1, %14 ], [ -1, %24 ], [ %.0.ph, %parser_skip_params.exit.sink.split ], [ -1, %.lr.ph.i33.preheader ], [ %12, %.preheader ]
  ret i32 %.0
}